target datalayout = "e-m:e-p270:32:32-p271:32:32-p272:64:64-i64:64-i128:128-f80:128-n8:16:32:64-S128"
target triple = "x86_64-pc-linux-gnu"

%struct.AVFormatContext = type { ptr, ptr, ptr, ptr, ptr, i32, i32, ptr, i32, ptr, i32, ptr, ptr, i64, i64, i64, i32, i32, i32, i64, i64, ptr, i32, i32, ptr, i32, i32, i32, i32, ptr, i64, i32, i32, %struct.AVIOInterruptCB, i32, i32, i32, i32, i64, i32, i32, i32, i32, i32, i32, i32, i32, i32, i32, i32, i32, i64, i32, i32, i32, i32, i32, ptr, ptr, ptr, ptr, i32, ptr, ptr, ptr, ptr, i32, ptr, ptr, i64, ptr, ptr, ptr, i64 }
%struct.AVIOInterruptCB = type { ptr, ptr }
%struct.ASFContext = type { ptr, i32, i32, [128 x %struct.ASFStream], [128 x ptr], i32, i64, i64, i64, i8, i32, i64, i64, i32, [65536 x i8], %struct.FFIOContext, i64, ptr, i32, i16, i32, i16, i64, i32, i32, i32 }
%struct.ASFStream = type { i32, i8, i16 }
%struct.FFIOContext = type { %struct.AVIOContext, ptr, i32, i32, i64, i64, i64, i64, i32, i32, i32, i64 }
%struct.AVIOContext = type { ptr, ptr, i32, ptr, ptr, ptr, ptr, ptr, ptr, i64, i32, i32, i32, i32, i32, i64, ptr, ptr, ptr, ptr, i32, i32, ptr, ptr, ptr, i32, ptr, i64, i64 }

@.str.10 = private unnamed_addr constant [33 x i8] c"ASF can only handle 127 streams\0A\00", align 1

; Function Attrs: nounwind uwtable
define internal i32 @asf_write_header(ptr noundef %0) #0 {
  %2 = alloca i32, align 4
  %3 = alloca ptr, align 8
  %4 = alloca ptr, align 8
  %5 = alloca i32, align 4
  %6 = alloca i32, align 4
  store ptr %0, ptr %3, align 8, !tbaa !4
  call void @llvm.lifetime.start.p0(i64 8, ptr %4) #9
  %7 = load ptr, ptr %3, align 8, !tbaa !4
  %8 = getelementptr inbounds nuw %struct.AVFormatContext, ptr %7, i32 0, i32 3
  %9 = load ptr, ptr %8, align 8, !tbaa !9
  store ptr %9, ptr %4, align 8, !tbaa !26
  call void @llvm.lifetime.start.p0(i64 4, ptr %5) #9
  %10 = load ptr, ptr %4, align 8, !tbaa !26
  %11 = getelementptr inbounds nuw %struct.ASFContext, ptr %10, i32 0, i32 25
  %12 = load i32, ptr %11, align 8, !tbaa !28
  %13 = load ptr, ptr %3, align 8, !tbaa !4
  %14 = getelementptr inbounds nuw %struct.AVFormatContext, ptr %13, i32 0, i32 16
  store i32 %12, ptr %14, align 8, !tbaa !34
  %15 = load ptr, ptr %3, align 8, !tbaa !4
  %16 = getelementptr inbounds nuw %struct.AVFormatContext, ptr %15, i32 0, i32 38
  store i64 0, ptr %16, align 8, !tbaa !35
  %17 = load ptr, ptr %4, align 8, !tbaa !26
  %18 = getelementptr inbounds nuw %struct.ASFContext, ptr %17, i32 0, i32 7
  store i64 0, ptr %18, align 8, !tbaa !36
  %19 = load ptr, ptr %3, align 8, !tbaa !4
  %20 = getelementptr inbounds nuw %struct.AVFormatContext, ptr %19, i32 0, i32 6
  %21 = load i32, ptr %20, align 4, !tbaa !37
  %22 = icmp ugt i32 %21, 127
  br i1 %22, label %23, label %25

23:                                               ; preds = %1
  %24 = load ptr, ptr %3, align 8, !tbaa !4
  call void (ptr, i32, ptr, ...) @av_log(ptr noundef %24, i32 noundef 16, ptr noundef @.str.10)
  store i32 -22, ptr %2, align 4
  store i32 1, ptr %6, align 4
  br label %67

25:                                               ; preds = %1
  %26 = call noalias ptr @av_malloc(i64 noundef 12288)
  %27 = load ptr, ptr %4, align 8, !tbaa !26
  %28 = getelementptr inbounds nuw %struct.ASFContext, ptr %27, i32 0, i32 17
  store ptr %26, ptr %28, align 8, !tbaa !38
  %29 = load ptr, ptr %4, align 8, !tbaa !26
  %30 = getelementptr inbounds nuw %struct.ASFContext, ptr %29, i32 0, i32 17
  %31 = load ptr, ptr %30, align 8, !tbaa !38
  %32 = icmp ne ptr %31, null
  br i1 %32, label %34, label %33

33:                                               ; preds = %25
  store i32 -12, ptr %2, align 4
  store i32 1, ptr %6, align 4
  br label %67

34:                                               ; preds = %25
  %35 = load ptr, ptr %4, align 8, !tbaa !26
  %36 = getelementptr inbounds nuw %struct.ASFContext, ptr %35, i32 0, i32 18
  store i32 512, ptr %36, align 8, !tbaa !39
  %37 = load ptr, ptr %4, align 8, !tbaa !26
  %38 = getelementptr inbounds nuw %struct.ASFContext, ptr %37, i32 0, i32 19
  store i16 0, ptr %38, align 4, !tbaa !40
  %39 = load ptr, ptr %3, align 8, !tbaa !4
  %40 = call i32 @asf_write_header1(ptr noundef %39, i64 noundef 0, i64 noundef 50)
  store i32 %40, ptr %5, align 4, !tbaa !41
  %41 = icmp slt i32 %40, 0
  br i1 %41, label %42, label %44

42:                                               ; preds = %34
  %43 = load i32, ptr %5, align 4, !tbaa !41
  store i32 %43, ptr %2, align 4
  store i32 1, ptr %6, align 4
  br label %67

44:                                               ; preds = %34
  %45 = load ptr, ptr %4, align 8, !tbaa !26
  %46 = getelementptr inbounds nuw %struct.ASFContext, ptr %45, i32 0, i32 13
  store i32 0, ptr %46, align 8, !tbaa !42
  %47 = load ptr, ptr %4, align 8, !tbaa !26
  %48 = getelementptr inbounds nuw %struct.ASFContext, ptr %47, i32 0, i32 11
  store i64 -1, ptr %48, align 8, !tbaa !43
  %49 = load ptr, ptr %4, align 8, !tbaa !26
  %50 = getelementptr inbounds nuw %struct.ASFContext, ptr %49, i32 0, i32 12
  store i64 -1, ptr %50, align 8, !tbaa !44
  %51 = load ptr, ptr %4, align 8, !tbaa !26
  %52 = getelementptr inbounds nuw %struct.ASFContext, ptr %51, i32 0, i32 15
  %53 = load ptr, ptr %4, align 8, !tbaa !26
  %54 = getelementptr inbounds nuw %struct.ASFContext, ptr %53, i32 0, i32 14
  %55 = getelementptr inbounds [65536 x i8], ptr %54, i64 0, i64 0
  %56 = load ptr, ptr %3, align 8, !tbaa !4
  %57 = getelementptr inbounds nuw %struct.AVFormatContext, ptr %56, i32 0, i32 16
  %58 = load i32, ptr %57, align 8, !tbaa !34
  call void @ffio_init_write_context(ptr noundef %52, ptr noundef %55, i32 noundef %58)
  %59 = load ptr, ptr %3, align 8, !tbaa !4
  %60 = getelementptr inbounds nuw %struct.AVFormatContext, ptr %59, i32 0, i32 45
  %61 = load i32, ptr %60, align 8, !tbaa !45
  %62 = icmp slt i32 %61, 0
  br i1 %62, label %63, label %66

63:                                               ; preds = %44
  %64 = load ptr, ptr %3, align 8, !tbaa !4
  %65 = getelementptr inbounds nuw %struct.AVFormatContext, ptr %64, i32 0, i32 45
  store i32 1, ptr %65, align 8, !tbaa !45
  br label %66

66:                                               ; preds = %63, %44
  store i32 0, ptr %2, align 4
  store i32 1, ptr %6, align 4
  br label %67

67:                                               ; preds = %66, %42, %33, %23
  call void @llvm.lifetime.end.p0(i64 4, ptr %5) #9
  call void @llvm.lifetime.end.p0(i64 8, ptr %4) #9
  %68 = load i32, ptr %2, align 4
  ret i32 %68
}

; Function Attrs: nounwind uwtable
define internal i32 @asf_write_stream_header(ptr noundef %0) #0 {
  %2 = alloca ptr, align 8
  %3 = alloca ptr, align 8
  store ptr %0, ptr %2, align 8, !tbaa !4
  call void @llvm.lifetime.start.p0(i64 8, ptr %3) #9
  %4 = load ptr, ptr %2, align 8, !tbaa !4
  %5 = getelementptr inbounds nuw %struct.AVFormatContext, ptr %4, i32 0, i32 3
  %6 = load ptr, ptr %5, align 8, !tbaa !9
  store ptr %6, ptr %3, align 8, !tbaa !26
  %7 = load ptr, ptr %3, align 8, !tbaa !26
  %8 = getelementptr inbounds nuw %struct.ASFContext, ptr %7, i32 0, i32 2
  store i32 1, ptr %8, align 4, !tbaa !75
  %9 = load ptr, ptr %2, align 8, !tbaa !4
  %10 = call i32 @asf_write_header(ptr noundef %9)
  call void @llvm.lifetime.end.p0(i64 8, ptr %3) #9
  ret i32 %10
}