; Function Attrs: nounwind uwtable
define internal range(i32 -2147483648, 1) i32 @asf_write_stream_header(ptr noundef initializes((120, 124), (248, 256)) %0) #0 {
  %2 = getelementptr inbounds nuw i8, ptr %0, i64 24
  %3 = load ptr, ptr %2, align 8, !tbaa !4
  %4 = getelementptr inbounds nuw i8, ptr %3, i64 12
  store i32 1, ptr %4, align 4, !tbaa !70
  %5 = getelementptr inbounds nuw i8, ptr %3, i64 67992
  %6 = load i32, ptr %5, align 8, !tbaa !24
  %7 = getelementptr inbounds nuw i8, ptr %0, i64 120
  store i32 %6, ptr %7, align 8, !tbaa !30
  %8 = getelementptr inbounds nuw i8, ptr %0, i64 248
  store i64 0, ptr %8, align 8, !tbaa !31
  %9 = getelementptr inbounds nuw i8, ptr %3, i64 2080
  store i64 0, ptr %9, align 8, !tbaa !32
  %10 = getelementptr inbounds nuw i8, ptr %0, i64 44
  %11 = load i32, ptr %10, align 4, !tbaa !33
  %12 = icmp ugt i32 %11, 127
  br i1 %12, label %13, label %14

13:                                               ; preds = %1
  tail call void (ptr, i32, ptr, ...) @av_log(ptr noundef nonnull %0, i32 noundef 16, ptr noundef nonnull @.str.10) #8
  br label %asf_write_header.exit

14:                                               ; preds = %1
  %15 = tail call noalias ptr @av_malloc(i64 noundef 12288) #8
  %16 = getelementptr inbounds nuw i8, ptr %3, i64 67952
  store ptr %15, ptr %16, align 8, !tbaa !34
  %.not.i = icmp eq ptr %15, null
  br i1 %.not.i, label %asf_write_header.exit, label %17

17:                                               ; preds = %14
  %18 = getelementptr inbounds nuw i8, ptr %3, i64 67960
  store i32 512, ptr %18, align 8, !tbaa !35
  %19 = getelementptr inbounds nuw i8, ptr %3, i64 67964
  store i16 0, ptr %19, align 4, !tbaa !36
  %20 = tail call fastcc i32 @asf_write_header1(ptr noundef nonnull %0, i64 noundef 0, i64 noundef 50)
  %21 = icmp slt i32 %20, 0
  br i1 %21, label %asf_write_header.exit, label %22

22:                                               ; preds = %17
  %23 = getelementptr inbounds nuw i8, ptr %3, i64 2120
  store i32 0, ptr %23, align 8, !tbaa !37
  %24 = getelementptr inbounds nuw i8, ptr %3, i64 2104
  %25 = getelementptr inbounds nuw i8, ptr %3, i64 67664
  %26 = getelementptr inbounds nuw i8, ptr %3, i64 2124
  tail call void @llvm.memset.p0.i64(ptr noundef nonnull align 8 dereferenceable(16) %24, i8 -1, i64 16, i1 false)
  %27 = load i32, ptr %7, align 8, !tbaa !30
  tail call void @ffio_init_write_context(ptr noundef nonnull %25, ptr noundef nonnull %26, i32 noundef %27) #8
  %28 = getelementptr inbounds nuw i8, ptr %0, i64 280
  %29 = load i32, ptr %28, align 8, !tbaa !38
  %30 = icmp slt i32 %29, 0
  br i1 %30, label %31, label %asf_write_header.exit

31:                                               ; preds = %22
  store i32 1, ptr %28, align 8, !tbaa !38
  br label %asf_write_header.exit

asf_write_header.exit:                            ; preds = %13, %14, %17, %22, %31
  %.0.i = phi i32 [ -22, %13 ], [ -12, %14 ], [ %20, %17 ], [ 0, %31 ], [ 0, %22 ]
  ret i32 %.0.i
}